target datalayout = "e-m:e-p270:32:32-p271:32:32-p272:64:64-i64:64-i128:128-f80:128-n8:16:32:64-S128"
target triple = "x86_64-pc-linux-gnu"

%"class.std::vector" = type { %"struct.std::_Vector_base" }
%"struct.std::_Vector_base" = type { %"struct.std::_Vector_base<int, std::allocator<int>>::_Vector_impl" }
%"struct.std::_Vector_base<int, std::allocator<int>>::_Vector_impl" = type { %"struct.std::_Vector_base<int, std::allocator<int>>::_Vector_impl_data" }
%"struct.std::_Vector_base<int, std::allocator<int>>::_Vector_impl_data" = type { ptr, ptr, ptr }
%"class.std::__cxx11::basic_string" = type { %"struct.std::__cxx11::basic_string<char>::_Alloc_hider", i64, %union.anon }
%"struct.std::__cxx11::basic_string<char>::_Alloc_hider" = type { ptr }
%union.anon = type { i64, [8 x i8] }
%"struct.ceres::Solver::Summary" = type { i32, i32, %"class.std::__cxx11::basic_string", double, double, double, %"class.std::vector.16", i32, i32, i32, i32, double, double, double, double, double, i32, double, i32, double, i32, double, double, double, double, double, i32, i32, i32, i32, i32, i32, i32, i32, i32, i32, i8, i32, i32, i32, i32, i8, i32, %"class.std::vector", %"class.std::vector", %"class.std::__cxx11::basic_string", %"class.std::__cxx11::basic_string", i8, i8, %"class.std::vector", %"class.std::vector", i32, i32, i32, i32, i32, i32, i32, i32, i32, i32, i32, i32 }
%"class.std::vector.16" = type { %"struct.std::_Vector_base.17" }
%"struct.std::_Vector_base.17" = type { %"struct.std::_Vector_base<ceres::IterationSummary, std::allocator<ceres::IterationSummary>>::_Vector_impl" }
%"struct.std::_Vector_base<ceres::IterationSummary, std::allocator<ceres::IterationSummary>>::_Vector_impl" = type { %"struct.std::_Vector_base<ceres::IterationSummary, std::allocator<ceres::IterationSummary>>::_Vector_impl_data" }
%"struct.std::_Vector_base<ceres::IterationSummary, std::allocator<ceres::IterationSummary>>::_Vector_impl_data" = type { ptr, ptr, ptr }

; Function Attrs: mustprogress nounwind uwtable
define linkonce_odr hidden noundef zeroext i1 @_ZN5ceres8internal16IsSolutionUsableINS_6Solver7SummaryEEEbRKT_(ptr noundef nonnull align 8 dereferenceable(512) %0) #1 comdat {
  %2 = alloca ptr, align 8
  store ptr %0, ptr %2, align 8, !tbaa !107
  %3 = load ptr, ptr %2, align 8, !tbaa !107
  %4 = getelementptr inbounds nuw %"struct.ceres::Solver::Summary", ptr %3, i32 0, i32 1
  %5 = load i32, ptr %4, align 4, !tbaa !186
  %6 = icmp eq i32 %5, 0
  br i1 %6, label %17, label %7

7:                                                ; preds = %1
  %8 = load ptr, ptr %2, align 8, !tbaa !107
  %9 = getelementptr inbounds nuw %"struct.ceres::Solver::Summary", ptr %8, i32 0, i32 1
  %10 = load i32, ptr %9, align 4, !tbaa !186
  %11 = icmp eq i32 %10, 1
  br i1 %11, label %17, label %12

12:                                               ; preds = %7
  %13 = load ptr, ptr %2, align 8, !tbaa !107
  %14 = getelementptr inbounds nuw %"struct.ceres::Solver::Summary", ptr %13, i32 0, i32 1
  %15 = load i32, ptr %14, align 4, !tbaa !186
  %16 = icmp eq i32 %15, 3
  br label %17

17:                                               ; preds = %12, %7, %1
  %18 = phi i1 [ true, %7 ], [ true, %1 ], [ %16, %12 ]
  ret i1 %18
}

; Function Attrs: mustprogress uwtable
define hidden noundef zeroext i1 @_ZNK5ceres6Solver7Summary16IsSolutionUsableEv(ptr noundef nonnull align 8 dereferenceable(512) %0) #3 align 2 {
  %2 = alloca ptr, align 8
  store ptr %0, ptr %2, align 8, !tbaa !107
  %3 = load ptr, ptr %2, align 8
  %4 = call noundef zeroext i1 @_ZN5ceres8internal16IsSolutionUsableINS_6Solver7SummaryEEEbRKT_(ptr noundef nonnull align 8 dereferenceable(512) %3)
  ret i1 %4
}