; Function Attrs: mustprogress nofree norecurse nosync nounwind willreturn memory(argmem: read) uwtable
define hidden noundef zeroext i1 @_ZNK5ceres6Solver7Summary16IsSolutionUsableEv(ptr noundef nonnull readonly align 8 captures(none) dereferenceable(512) %0) local_unnamed_addr #16 align 2 {
_ZN5ceres8internal16IsSolutionUsableINS_6Solver7SummaryEEEbRKT_.exit:
  %1 = getelementptr inbounds nuw i8, ptr %0, i64 4
  %2 = load i32, ptr %1, align 4, !tbaa !220
  %3 = icmp ult i32 %2, 4
  %switch.cast = trunc i32 %2 to i4
  %switch.downshift = lshr i4 -5, %switch.cast
  %switch.masked = trunc i4 %switch.downshift to i1
  %4 = select i1 %3, i1 %switch.masked, i1 false
  ret i1 %4
}